target datalayout = "e-m:e-p270:32:32-p271:32:32-p272:64:64-i64:64-i128:128-f80:128-n8:16:32:64-S128"
target triple = "x86_64-unknown-linux-gnu"

%"class.std::chrono::duration" = type { i64 }
%"class.std::chrono::duration.23" = type { i64 }
%"class.std::chrono::duration.24" = type { i64 }

; Function Attrs: mustprogress nounwind uwtable
define linkonce_odr noundef i64 @_ZNKSt6chrono8durationIlSt5ratioILl3600ELl1EEE5countEv(ptr noundef nonnull align 8 dereferenceable(8) %this) #1 comdat align 2 {
entry:
  %this.addr = alloca ptr, align 8
  store ptr %this, ptr %this.addr, align 8
  %this1 = load ptr, ptr %this.addr, align 8
  %__r = getelementptr inbounds %"class.std::chrono::duration.24", ptr %this1, i32 0, i32 0
  %0 = load i64, ptr %__r, align 8
  ret i64 %0
}

; Function Attrs: mustprogress uwtable
define linkonce_odr i64 @_ZNSt6chrono20__duration_cast_implINS_8durationIlSt5ratioILl60ELl1EEEES3_lLb0ELb1EE6__castIlS2_ILl3600ELl1EEEES4_RKNS1_IT_T0_EE(ptr noundef nonnull align 8 dereferenceable(8) %__d) #0 comdat align 2 {
entry:
  %retval = alloca %"class.std::chrono::duration.23", align 8
  %__d.addr = alloca ptr, align 8
  %ref.tmp = alloca i64, align 8
  store ptr %__d, ptr %__d.addr, align 8
  %0 = load ptr, ptr %__d.addr, align 8
  %call = call noundef i64 @_ZNKSt6chrono8durationIlSt5ratioILl3600ELl1EEE5countEv(ptr noundef nonnull align 8 dereferenceable(8) %0)
  %mul = mul nsw i64 %call, 60
  store i64 %mul, ptr %ref.tmp, align 8
  call void @_ZNSt6chrono8durationIlSt5ratioILl60ELl1EEEC2IlvEERKT_(ptr noundef nonnull align 8 dereferenceable(8) %retval, ptr noundef nonnull align 8 dereferenceable(8) %ref.tmp)
  %coerce.dive = getelementptr inbounds %"class.std::chrono::duration.23", ptr %retval, i32 0, i32 0
  %1 = load i64, ptr %coerce.dive, align 8
  ret i64 %1
}

; Function Attrs: mustprogress nounwind uwtable
define linkonce_odr void @_ZNSt6chrono8durationIlSt5ratioILl1ELl1EEEC2IlvEERKT_(ptr noundef nonnull align 8 dereferenceable(8) %this, ptr noundef nonnull align 8 dereferenceable(8) %__rep) unnamed_addr #1 comdat align 2 {
entry:
  %this.addr = alloca ptr, align 8
  %__rep.addr = alloca ptr, align 8
  store ptr %this, ptr %this.addr, align 8
  store ptr %__rep, ptr %__rep.addr, align 8
  %this1 = load ptr, ptr %this.addr, align 8
  %__r = getelementptr inbounds %"class.std::chrono::duration", ptr %this1, i32 0, i32 0
  %0 = load ptr, ptr %__rep.addr, align 8
  %1 = load i64, ptr %0, align 8
  store i64 %1, ptr %__r, align 8
  ret void
}

; Function Attrs: mustprogress uwtable
define linkonce_odr i64 @_ZNSt6chrono13duration_castINS_8durationIlSt5ratioILl60ELl1EEEElS2_ILl3600ELl1EEEENSt9enable_ifIXsr13__is_durationIT_EE5valueES7_E4typeERKNS1_IT0_T1_EE(ptr noundef nonnull align 8 dereferenceable(8) %__d) #0 comdat {
entry:
  %retval = alloca %"class.std::chrono::duration.23", align 8
  %__d.addr = alloca ptr, align 8
  store ptr %__d, ptr %__d.addr, align 8
  %0 = load ptr, ptr %__d.addr, align 8
  %call = call i64 @_ZNSt6chrono20__duration_cast_implINS_8durationIlSt5ratioILl60ELl1EEEES3_lLb0ELb1EE6__castIlS2_ILl3600ELl1EEEES4_RKNS1_IT_T0_EE(ptr noundef nonnull align 8 dereferenceable(8) %0)
  %coerce.dive = getelementptr inbounds %"class.std::chrono::duration.23", ptr %retval, i32 0, i32 0
  store i64 %call, ptr %coerce.dive, align 8
  %coerce.dive1 = getelementptr inbounds %"class.std::chrono::duration.23", ptr %retval, i32 0, i32 0
  %1 = load i64, ptr %coerce.dive1, align 8
  ret i64 %1
}

; Function Attrs: mustprogress uwtable
define linkonce_odr i64 @_ZNSt6chrono20__duration_cast_implINS_8durationIlSt5ratioILl1ELl1EEEES2_ILl60ELl1EElLb0ELb1EE6__castIlS5_EES4_RKNS1_IT_T0_EE(ptr noundef nonnull align 8 dereferenceable(8) %__d) #0 comdat align 2 {
entry:
  %retval = alloca %"class.std::chrono::duration", align 8
  %__d.addr = alloca ptr, align 8
  %ref.tmp = alloca i64, align 8
  store ptr %__d, ptr %__d.addr, align 8
  %0 = load ptr, ptr %__d.addr, align 8
  %call = call noundef i64 @_ZNKSt6chrono8durationIlSt5ratioILl60ELl1EEE5countEv(ptr noundef nonnull align 8 dereferenceable(8) %0)
  %mul = mul nsw i64 %call, 60
  store i64 %mul, ptr %ref.tmp, align 8
  call void @_ZNSt6chrono8durationIlSt5ratioILl1ELl1EEEC2IlvEERKT_(ptr noundef nonnull align 8 dereferenceable(8) %retval, ptr noundef nonnull align 8 dereferenceable(8) %ref.tmp)
  %coerce.dive = getelementptr inbounds %"class.std::chrono::duration", ptr %retval, i32 0, i32 0
  %1 = load i64, ptr %coerce.dive, align 8
  ret i64 %1
}

; Function Attrs: mustprogress nounwind uwtable
define linkonce_odr void @_ZNSt6chrono8durationIlSt5ratioILl60ELl1EEEC2IlvEERKT_(ptr noundef nonnull align 8 dereferenceable(8) %this, ptr noundef nonnull align 8 dereferenceable(8) %__rep) unnamed_addr #1 comdat align 2 {
entry:
  %this.addr = alloca ptr, align 8
  %__rep.addr = alloca ptr, align 8
  store ptr %this, ptr %this.addr, align 8
  store ptr %__rep, ptr %__rep.addr, align 8
  %this1 = load ptr, ptr %this.addr, align 8
  %__r = getelementptr inbounds %"class.std::chrono::duration.23", ptr %this1, i32 0, i32 0
  %0 = load ptr, ptr %__rep.addr, align 8
  %1 = load i64, ptr %0, align 8
  store i64 %1, ptr %__r, align 8
  ret void
}

; Function Attrs: mustprogress nounwind uwtable
define linkonce_odr noundef i64 @_ZNKSt6chrono8durationIlSt5ratioILl60ELl1EEE5countEv(ptr noundef nonnull align 8 dereferenceable(8) %this) #1 comdat align 2 {
entry:
  %this.addr = alloca ptr, align 8
  store ptr %this, ptr %this.addr, align 8
  %this1 = load ptr, ptr %this.addr, align 8
  %__r = getelementptr inbounds %"class.std::chrono::duration.23", ptr %this1, i32 0, i32 0
  %0 = load i64, ptr %__r, align 8
  ret i64 %0
}

; Function Attrs: mustprogress uwtable
define linkonce_odr void @_ZNSt6chrono8durationIlSt5ratioILl60ELl1EEEC2IlS1_ILl3600ELl1EEvEERKNS0_IT_T0_EE(ptr noundef nonnull align 8 dereferenceable(8) %this, ptr noundef nonnull align 8 dereferenceable(8) %__d) unnamed_addr #0 comdat align 2 {
entry:
  %this.addr = alloca ptr, align 8
  %__d.addr = alloca ptr, align 8
  %ref.tmp = alloca %"class.std::chrono::duration.23", align 8
  store ptr %this, ptr %this.addr, align 8
  store ptr %__d, ptr %__d.addr, align 8
  %this1 = load ptr, ptr %this.addr, align 8
  %__r = getelementptr inbounds %"class.std::chrono::duration.23", ptr %this1, i32 0, i32 0
  %0 = load ptr, ptr %__d.addr, align 8
  %call = call i64 @_ZNSt6chrono13duration_castINS_8durationIlSt5ratioILl60ELl1EEEElS2_ILl3600ELl1EEEENSt9enable_ifIXsr13__is_durationIT_EE5valueES7_E4typeERKNS1_IT0_T1_EE(ptr noundef nonnull align 8 dereferenceable(8) %0)
  %coerce.dive = getelementptr inbounds %"class.std::chrono::duration.23", ptr %ref.tmp, i32 0, i32 0
  store i64 %call, ptr %coerce.dive, align 8
  %call2 = call noundef i64 @_ZNKSt6chrono8durationIlSt5ratioILl60ELl1EEE5countEv(ptr noundef nonnull align 8 dereferenceable(8) %ref.tmp)
  store i64 %call2, ptr %__r, align 8
  ret void
}

; Function Attrs: mustprogress nounwind uwtable
define linkonce_odr noundef zeroext i8 @_ZNSt14numeric_limitsIhE3maxEv() #1 comdat align 2 {
entry:
  ret i8 -1
}

; Function Attrs: mustprogress nounwind uwtable
define linkonce_odr noundef zeroext i8 @_ZN5arrow8internal17ParseDecimalDigitEc(i8 noundef signext %c) #1 comdat {
entry:
  %c.addr = alloca i8, align 1
  store i8 %c, ptr %c.addr, align 1
  %0 = load i8, ptr %c.addr, align 1
  %conv = sext i8 %0 to i32
  %sub = sub nsw i32 %conv, 48
  %conv1 = trunc i32 %sub to i8
  ret i8 %conv1
}

; Function Attrs: mustprogress uwtable
define linkonce_odr i64 @_ZNSt6chrono13duration_castINS_8durationIlSt5ratioILl1ELl1EEEElS2_ILl60ELl1EEEENSt9enable_ifIXsr13__is_durationIT_EE5valueES7_E4typeERKNS1_IT0_T1_EE(ptr noundef nonnull align 8 dereferenceable(8) %__d) #0 comdat {
entry:
  %retval = alloca %"class.std::chrono::duration", align 8
  %__d.addr = alloca ptr, align 8
  store ptr %__d, ptr %__d.addr, align 8
  %0 = load ptr, ptr %__d.addr, align 8
  %call = call i64 @_ZNSt6chrono20__duration_cast_implINS_8durationIlSt5ratioILl1ELl1EEEES2_ILl60ELl1EElLb0ELb1EE6__castIlS5_EES4_RKNS1_IT_T0_EE(ptr noundef nonnull align 8 dereferenceable(8) %0)
  %coerce.dive = getelementptr inbounds %"class.std::chrono::duration", ptr %retval, i32 0, i32 0
  store i64 %call, ptr %coerce.dive, align 8
  %coerce.dive1 = getelementptr inbounds %"class.std::chrono::duration", ptr %retval, i32 0, i32 0
  %1 = load i64, ptr %coerce.dive1, align 8
  ret i64 %1
}

; Function Attrs: mustprogress uwtable
define linkonce_odr i64 @_ZNSt6chronoplIlSt5ratioILl3600ELl1EElS1_ILl60ELl1EEEENSt11common_typeIJNS_8durationIT_T0_EENS5_IT1_T2_EEEE4typeERKS8_RKSB_(ptr noundef nonnull align 8 dereferenceable(8) %__lhs, ptr noundef nonnull align 8 dereferenceable(8) %__rhs) #0 comdat {
entry:
  %retval = alloca %"class.std::chrono::duration.23", align 8
  %__lhs.addr = alloca ptr, align 8
  %__rhs.addr = alloca ptr, align 8
  %ref.tmp = alloca i64, align 8
  %ref.tmp1 = alloca %"class.std::chrono::duration.23", align 8
  %ref.tmp2 = alloca %"class.std::chrono::duration.23", align 8
  store ptr %__lhs, ptr %__lhs.addr, align 8
  store ptr %__rhs, ptr %__rhs.addr, align 8
  %0 = load ptr, ptr %__lhs.addr, align 8
  call void @_ZNSt6chrono8durationIlSt5ratioILl60ELl1EEEC2IlS1_ILl3600ELl1EEvEERKNS0_IT_T0_EE(ptr noundef nonnull align 8 dereferenceable(8) %ref.tmp1, ptr noundef nonnull align 8 dereferenceable(8) %0)
  %call = call noundef i64 @_ZNKSt6chrono8durationIlSt5ratioILl60ELl1EEE5countEv(ptr noundef nonnull align 8 dereferenceable(8) %ref.tmp1)
  %1 = load ptr, ptr %__rhs.addr, align 8
  call void @llvm.memcpy.p0.p0.i64(ptr align 8 %ref.tmp2, ptr align 8 %1, i64 8, i1 false)
  %call3 = call noundef i64 @_ZNKSt6chrono8durationIlSt5ratioILl60ELl1EEE5countEv(ptr noundef nonnull align 8 dereferenceable(8) %ref.tmp2)
  %add = add nsw i64 %call, %call3
  store i64 %add, ptr %ref.tmp, align 8
  call void @_ZNSt6chrono8durationIlSt5ratioILl60ELl1EEEC2IlvEERKT_(ptr noundef nonnull align 8 dereferenceable(8) %retval, ptr noundef nonnull align 8 dereferenceable(8) %ref.tmp)
  %coerce.dive = getelementptr inbounds %"class.std::chrono::duration.23", ptr %retval, i32 0, i32 0
  %2 = load i64, ptr %coerce.dive, align 8
  ret i64 %2
}

; Function Attrs: mustprogress nounwind uwtable
define linkonce_odr void @_ZNSt6chrono8durationIlSt5ratioILl60ELl1EEEC2IhvEERKT_(ptr noundef nonnull align 8 dereferenceable(8) %this, ptr noundef nonnull align 1 dereferenceable(1) %__rep) unnamed_addr #1 comdat align 2 {
entry:
  %this.addr = alloca ptr, align 8
  %__rep.addr = alloca ptr, align 8
  store ptr %this, ptr %this.addr, align 8
  store ptr %__rep, ptr %__rep.addr, align 8
  %this1 = load ptr, ptr %this.addr, align 8
  %__r = getelementptr inbounds %"class.std::chrono::duration.23", ptr %this1, i32 0, i32 0
  %0 = load ptr, ptr %__rep.addr, align 8
  %1 = load i8, ptr %0, align 1
  %conv = zext i8 %1 to i64
  store i64 %conv, ptr %__r, align 8
  ret void
}

; Function Attrs: mustprogress nounwind uwtable
define linkonce_odr void @_ZNSt6chrono8durationIlSt5ratioILl3600ELl1EEEC2IhvEERKT_(ptr noundef nonnull align 8 dereferenceable(8) %this, ptr noundef nonnull align 1 dereferenceable(1) %__rep) unnamed_addr #1 comdat align 2 {
entry:
  %this.addr = alloca ptr, align 8
  %__rep.addr = alloca ptr, align 8
  store ptr %this, ptr %this.addr, align 8
  store ptr %__rep, ptr %__rep.addr, align 8
  %this1 = load ptr, ptr %this.addr, align 8
  %__r = getelementptr inbounds %"class.std::chrono::duration.24", ptr %this1, i32 0, i32 0
  %0 = load ptr, ptr %__rep.addr, align 8
  %1 = load i8, ptr %0, align 1
  %conv = zext i8 %1 to i64
  store i64 %conv, ptr %__r, align 8
  ret void
}

; Function Attrs: mustprogress nounwind uwtable
define linkonce_odr noundef zeroext i1 @_ZN5arrow8internal13ParseUnsignedEPKcmPh(ptr noundef %s, i64 noundef %length, ptr noundef %out) #1 comdat {
entry:
  %retval = alloca i1, align 1
  %s.addr = alloca ptr, align 8
  %length.addr = alloca i64, align 8
  %out.addr = alloca ptr, align 8
  %result = alloca i8, align 1
  %digit = alloca i8, align 1
  %digit13 = alloca i8, align 1
  %digit44 = alloca i8, align 1
  %new_result = alloca i8, align 1
  store ptr %s, ptr %s.addr, align 8
  store i64 %length, ptr %length.addr, align 8
  store ptr %out, ptr %out.addr, align 8
  store i8 0, ptr %result, align 1
  br label %do.body

do.body:                                          ; preds = %entry
  %0 = load i64, ptr %length.addr, align 8
  %cmp = icmp ugt i64 %0, 0
  br i1 %cmp, label %if.then, label %if.else

if.then:                                          ; preds = %do.body
  %1 = load ptr, ptr %s.addr, align 8
  %incdec.ptr = getelementptr inbounds i8, ptr %1, i32 1
  store ptr %incdec.ptr, ptr %s.addr, align 8
  %2 = load i8, ptr %1, align 1
  %call = call noundef zeroext i8 @_ZN5arrow8internal17ParseDecimalDigitEc(i8 noundef signext %2)
  store i8 %call, ptr %digit, align 1
  %3 = load i8, ptr %result, align 1
  %conv = zext i8 %3 to i32
  %mul = mul i32 %conv, 10
  %conv1 = trunc i32 %mul to i8
  store i8 %conv1, ptr %result, align 1
  %4 = load i64, ptr %length.addr, align 8
  %dec = add i64 %4, -1
  store i64 %dec, ptr %length.addr, align 8
  %5 = load i8, ptr %digit, align 1
  %conv2 = zext i8 %5 to i32
  %cmp3 = icmp ugt i32 %conv2, 9
  %lnot = xor i1 %cmp3, true
  %lnot4 = xor i1 %lnot, true
  br i1 %lnot4, label %if.then6, label %if.end

if.then6:                                         ; preds = %if.then
  store i1 false, ptr %retval, align 1
  br label %return

if.end:                                           ; preds = %if.then
  %6 = load i8, ptr %result, align 1
  %conv7 = zext i8 %6 to i32
  %7 = load i8, ptr %digit, align 1
  %conv8 = zext i8 %7 to i32
  %add = add nsw i32 %conv7, %conv8
  %conv9 = trunc i32 %add to i8
  store i8 %conv9, ptr %result, align 1
  br label %if.end10

if.else:                                          ; preds = %do.body
  br label %do.end

if.end10:                                         ; preds = %if.end
  %8 = load i64, ptr %length.addr, align 8
  %cmp11 = icmp ugt i64 %8, 0
  br i1 %cmp11, label %if.then12, label %if.else31

if.then12:                                        ; preds = %if.end10
  %9 = load ptr, ptr %s.addr, align 8
  %incdec.ptr14 = getelementptr inbounds i8, ptr %9, i32 1
  store ptr %incdec.ptr14, ptr %s.addr, align 8
  %10 = load i8, ptr %9, align 1
  %call15 = call noundef zeroext i8 @_ZN5arrow8internal17ParseDecimalDigitEc(i8 noundef signext %10)
  store i8 %call15, ptr %digit13, align 1
  %11 = load i8, ptr %result, align 1
  %conv16 = zext i8 %11 to i32
  %mul17 = mul i32 %conv16, 10
  %conv18 = trunc i32 %mul17 to i8
  store i8 %conv18, ptr %result, align 1
  %12 = load i64, ptr %length.addr, align 8
  %dec19 = add i64 %12, -1
  store i64 %dec19, ptr %length.addr, align 8
  %13 = load i8, ptr %digit13, align 1
  %conv20 = zext i8 %13 to i32
  %cmp21 = icmp ugt i32 %conv20, 9
  %lnot22 = xor i1 %cmp21, true
  %lnot23 = xor i1 %lnot22, true
  br i1 %lnot23, label %if.then25, label %if.end26

if.then25:                                        ; preds = %if.then12
  store i1 false, ptr %retval, align 1
  br label %return

if.end26:                                         ; preds = %if.then12
  %14 = load i8, ptr %result, align 1
  %conv27 = zext i8 %14 to i32
  %15 = load i8, ptr %digit13, align 1
  %conv28 = zext i8 %15 to i32
  %add29 = add nsw i32 %conv27, %conv28
  %conv30 = trunc i32 %add29 to i8
  store i8 %conv30, ptr %result, align 1
  br label %if.end32

if.else31:                                        ; preds = %if.end10
  br label %do.end

if.end32:                                         ; preds = %if.end26
  %16 = load i64, ptr %length.addr, align 8
  %cmp33 = icmp ugt i64 %16, 0
  br i1 %cmp33, label %if.then34, label %if.end76

if.then34:                                        ; preds = %if.end32
  %17 = load i8, ptr %result, align 1
  %conv35 = zext i8 %17 to i32
  %call36 = call noundef zeroext i8 @_ZNSt14numeric_limitsIhE3maxEv() #13
  %conv37 = zext i8 %call36 to i32
  %div = udiv i32 %conv37, 10
  %cmp38 = icmp ugt i32 %conv35, %div
  %lnot39 = xor i1 %cmp38, true
  %lnot40 = xor i1 %lnot39, true
  br i1 %lnot40, label %if.then42, label %if.end43

if.then42:                                        ; preds = %if.then34
  store i1 false, ptr %retval, align 1
  br label %return

if.end43:                                         ; preds = %if.then34
  %18 = load ptr, ptr %s.addr, align 8
  %incdec.ptr45 = getelementptr inbounds i8, ptr %18, i32 1
  store ptr %incdec.ptr45, ptr %s.addr, align 8
  %19 = load i8, ptr %18, align 1
  %call46 = call noundef zeroext i8 @_ZN5arrow8internal17ParseDecimalDigitEc(i8 noundef signext %19)
  store i8 %call46, ptr %digit44, align 1
  %20 = load i8, ptr %result, align 1
  %conv47 = zext i8 %20 to i32
  %mul48 = mul i32 %conv47, 10
  %conv49 = trunc i32 %mul48 to i8
  store i8 %conv49, ptr %result, align 1
  %21 = load i8, ptr %result, align 1
  %conv50 = zext i8 %21 to i32
  %22 = load i8, ptr %digit44, align 1
  %conv51 = zext i8 %22 to i32
  %add52 = add nsw i32 %conv50, %conv51
  %conv53 = trunc i32 %add52 to i8
  store i8 %conv53, ptr %new_result, align 1
  %23 = load i64, ptr %length.addr, align 8
  %dec54 = add i64 %23, -1
  store i64 %dec54, ptr %length.addr, align 8
  %cmp55 = icmp ugt i64 %dec54, 0
  %lnot56 = xor i1 %cmp55, true
  %lnot57 = xor i1 %lnot56, true
  br i1 %lnot57, label %if.then59, label %if.end60

if.then59:                                        ; preds = %if.end43
  store i1 false, ptr %retval, align 1
  br label %return

if.end60:                                         ; preds = %if.end43
  %24 = load i8, ptr %digit44, align 1
  %conv61 = zext i8 %24 to i32
  %cmp62 = icmp ugt i32 %conv61, 9
  %lnot63 = xor i1 %cmp62, true
  %lnot64 = xor i1 %lnot63, true
  br i1 %lnot64, label %if.then66, label %if.end67

if.then66:                                        ; preds = %if.end60
  store i1 false, ptr %retval, align 1
  br label %return

if.end67:                                         ; preds = %if.end60
  %25 = load i8, ptr %new_result, align 1
  %conv68 = zext i8 %25 to i32
  %26 = load i8, ptr %result, align 1
  %conv69 = zext i8 %26 to i32
  %cmp70 = icmp slt i32 %conv68, %conv69
  %lnot71 = xor i1 %cmp70, true
  %lnot72 = xor i1 %lnot71, true
  br i1 %lnot72, label %if.then74, label %if.end75

if.then74:                                        ; preds = %if.end67
  store i1 false, ptr %retval, align 1
  br label %return

if.end75:                                         ; preds = %if.end67
  %27 = load i8, ptr %new_result, align 1
  store i8 %27, ptr %result, align 1
  br label %if.end76

if.end76:                                         ; preds = %if.end75, %if.end32
  br label %do.end

do.end:                                           ; preds = %if.end76, %if.else31, %if.else
  %28 = load i8, ptr %result, align 1
  %29 = load ptr, ptr %out.addr, align 8
  store i8 %28, ptr %29, align 1
  store i1 true, ptr %retval, align 1
  br label %return

return:                                           ; preds = %do.end, %if.then74, %if.then66, %if.then59, %if.then42, %if.then25, %if.then6
  %30 = load i1, ptr %retval, align 1
  ret i1 %30
}

; Function Attrs: mustprogress uwtable
define internal noundef zeroext i1 @_ZN5arrow8internal6detailL10ParseHH_MMINSt6chrono8durationIlSt5ratioILl1ELl1EEEEEEbPKcPT_(ptr noundef %s, ptr noundef %out) #0 {
entry:
  %retval = alloca i1, align 1
  %s.addr = alloca ptr, align 8
  %out.addr = alloca ptr, align 8
  %hours = alloca i8, align 1
  %minutes = alloca i8, align 1
  %ref.tmp = alloca %"class.std::chrono::duration", align 8
  %ref.tmp31 = alloca %"class.std::chrono::duration.23", align 8
  %ref.tmp32 = alloca %"class.std::chrono::duration.24", align 8
  %ref.tmp33 = alloca %"class.std::chrono::duration.23", align 8
  store ptr %s, ptr %s.addr, align 8
  store ptr %out, ptr %out.addr, align 8
  store i8 0, ptr %hours, align 1
  store i8 0, ptr %minutes, align 1
  %0 = load ptr, ptr %s.addr, align 8
  %arrayidx = getelementptr inbounds i8, ptr %0, i64 2
  %1 = load i8, ptr %arrayidx, align 1
  %conv = sext i8 %1 to i32
  %cmp = icmp ne i32 %conv, 58
  %lnot = xor i1 %cmp, true
  %lnot1 = xor i1 %lnot, true
  br i1 %lnot1, label %if.then, label %if.end

if.then:                                          ; preds = %entry
  store i1 false, ptr %retval, align 1
  br label %return

if.end:                                           ; preds = %entry
  %2 = load ptr, ptr %s.addr, align 8
  %add.ptr = getelementptr inbounds i8, ptr %2, i64 0
  %call = call noundef zeroext i1 @_ZN5arrow8internal13ParseUnsignedEPKcmPh(ptr noundef %add.ptr, i64 noundef 2, ptr noundef %hours)
  %lnot3 = xor i1 %call, true
  %lnot4 = xor i1 %lnot3, true
  %lnot5 = xor i1 %lnot4, true
  br i1 %lnot5, label %if.then7, label %if.end8

if.then7:                                         ; preds = %if.end
  store i1 false, ptr %retval, align 1
  br label %return

if.end8:                                          ; preds = %if.end
  %3 = load ptr, ptr %s.addr, align 8
  %add.ptr9 = getelementptr inbounds i8, ptr %3, i64 3
  %call10 = call noundef zeroext i1 @_ZN5arrow8internal13ParseUnsignedEPKcmPh(ptr noundef %add.ptr9, i64 noundef 2, ptr noundef %minutes)
  %lnot11 = xor i1 %call10, true
  %lnot12 = xor i1 %lnot11, true
  %lnot13 = xor i1 %lnot12, true
  br i1 %lnot13, label %if.then15, label %if.end16

if.then15:                                        ; preds = %if.end8
  store i1 false, ptr %retval, align 1
  br label %return

if.end16:                                         ; preds = %if.end8
  %4 = load i8, ptr %hours, align 1
  %conv17 = zext i8 %4 to i32
  %cmp18 = icmp sge i32 %conv17, 24
  %lnot19 = xor i1 %cmp18, true
  %lnot20 = xor i1 %lnot19, true
  br i1 %lnot20, label %if.then22, label %if.end23

if.then22:                                        ; preds = %if.end16
  store i1 false, ptr %retval, align 1
  br label %return

if.end23:                                         ; preds = %if.end16
  %5 = load i8, ptr %minutes, align 1
  %conv24 = zext i8 %5 to i32
  %cmp25 = icmp sge i32 %conv24, 60
  %lnot26 = xor i1 %cmp25, true
  %lnot27 = xor i1 %lnot26, true
  br i1 %lnot27, label %if.then29, label %if.end30

if.then29:                                        ; preds = %if.end23
  store i1 false, ptr %retval, align 1
  br label %return

if.end30:                                         ; preds = %if.end23
  call void @_ZNSt6chrono8durationIlSt5ratioILl3600ELl1EEEC2IhvEERKT_(ptr noundef nonnull align 8 dereferenceable(8) %ref.tmp32, ptr noundef nonnull align 1 dereferenceable(1) %hours)
  call void @_ZNSt6chrono8durationIlSt5ratioILl60ELl1EEEC2IhvEERKT_(ptr noundef nonnull align 8 dereferenceable(8) %ref.tmp33, ptr noundef nonnull align 1 dereferenceable(1) %minutes)
  %call34 = call i64 @_ZNSt6chronoplIlSt5ratioILl3600ELl1EElS1_ILl60ELl1EEEENSt11common_typeIJNS_8durationIT_T0_EENS5_IT1_T2_EEEE4typeERKS8_RKSB_(ptr noundef nonnull align 8 dereferenceable(8) %ref.tmp32, ptr noundef nonnull align 8 dereferenceable(8) %ref.tmp33)
  %coerce.dive = getelementptr inbounds %"class.std::chrono::duration.23", ptr %ref.tmp31, i32 0, i32 0
  store i64 %call34, ptr %coerce.dive, align 8
  %call35 = call i64 @_ZNSt6chrono13duration_castINS_8durationIlSt5ratioILl1ELl1EEEElS2_ILl60ELl1EEEENSt9enable_ifIXsr13__is_durationIT_EE5valueES7_E4typeERKNS1_IT0_T1_EE(ptr noundef nonnull align 8 dereferenceable(8) %ref.tmp31)
  %coerce.dive36 = getelementptr inbounds %"class.std::chrono::duration", ptr %ref.tmp, i32 0, i32 0
  store i64 %call35, ptr %coerce.dive36, align 8
  %6 = load ptr, ptr %out.addr, align 8
  call void @llvm.memcpy.p0.p0.i64(ptr align 8 %6, ptr align 8 %ref.tmp, i64 8, i1 false)
  store i1 true, ptr %retval, align 1
  br label %return

return:                                           ; preds = %if.end30, %if.then29, %if.then22, %if.then15, %if.then7, %if.then
  %7 = load i1, ptr %retval, align 1
  ret i1 %7
}