; Function Attrs: mustprogress nofree norecurse nosync nounwind willreturn memory(argmem: readwrite) uwtable
define internal fastcc noundef zeroext i1 @_ZN5arrow8internal6detailL10ParseHH_MMINSt6chrono8durationIlSt5ratioILl1ELl1EEEEEEbPKcPT_(ptr nocapture noundef readonly %s, ptr nocapture noundef writeonly %out) unnamed_addr #13 {
entry:
  %arrayidx = getelementptr inbounds i8, ptr %s, i64 2
  %0 = load i8, ptr %arrayidx, align 1
  %cmp.not = icmp eq i8 %0, 58
  br i1 %cmp.not, label %if.end, label %return

if.end:                                           ; preds = %entry
  %1 = load i8, ptr %s, align 1
  %sub.i.i = add i8 %1, -48
  %cmp3.i = icmp ugt i8 %sub.i.i, 9
  br i1 %cmp3.i, label %return, label %if.end.i

if.end.i:                                         ; preds = %if.end
  %incdec.ptr.i = getelementptr inbounds i8, ptr %s, i64 1
  %2 = load i8, ptr %incdec.ptr.i, align 1
  %sub.i21.i = add i8 %2, -48
  %cmp21.i = icmp ugt i8 %sub.i21.i, 9
  br i1 %cmp21.i, label %return, label %if.end8

if.end8:                                          ; preds = %if.end.i
  %narrow.i = mul nuw nsw i8 %sub.i.i, 10
  %add29.i = add nuw nsw i8 %sub.i21.i, %narrow.i
  %add.ptr9 = getelementptr inbounds i8, ptr %s, i64 3
  %3 = load i8, ptr %add.ptr9, align 1
  %sub.i.i5 = add i8 %3, -48
  %cmp3.i6 = icmp ugt i8 %sub.i.i5, 9
  br i1 %cmp3.i6, label %return, label %if.end.i7

if.end.i7:                                        ; preds = %if.end8
  %incdec.ptr.i4 = getelementptr inbounds i8, ptr %s, i64 4
  %4 = load i8, ptr %incdec.ptr.i4, align 1
  %sub.i21.i9 = add i8 %4, -48
  %cmp21.i10 = icmp ugt i8 %sub.i21.i9, 9
  br i1 %cmp21.i10, label %return, label %_ZN5arrow8internal13ParseUnsignedEPKcmPh.exit15

_ZN5arrow8internal13ParseUnsignedEPKcmPh.exit15:  ; preds = %if.end.i7
  %narrow.i12 = mul nuw nsw i8 %sub.i.i5, 10
  %add29.i13 = add nuw nsw i8 %sub.i21.i9, %narrow.i12
  %cmp18 = icmp ugt i8 %add29.i, 23
  %cmp25 = icmp ugt i8 %add29.i13, 59
  %or.cond3 = select i1 %cmp18, i1 true, i1 %cmp25
  br i1 %or.cond3, label %return, label %if.end30

if.end30:                                         ; preds = %_ZN5arrow8internal13ParseUnsignedEPKcmPh.exit15
  %conv.i = zext nneg i8 %add29.i to i64
  %conv.i16 = zext nneg i8 %add29.i13 to i64
  %mul.i.i.i.i = mul nuw nsw i64 %conv.i, 60
  %add.i = add nuw nsw i64 %mul.i.i.i.i, %conv.i16
  %mul.i.i = mul nuw nsw i64 %add.i, 60
  store i64 %mul.i.i, ptr %out, align 8
  br label %return

return:                                           ; preds = %if.end.i7, %if.end8, %if.end.i, %if.end, %_ZN5arrow8internal13ParseUnsignedEPKcmPh.exit15, %entry, %if.end30
  %retval.0 = phi i1 [ true, %if.end30 ], [ false, %entry ], [ false, %_ZN5arrow8internal13ParseUnsignedEPKcmPh.exit15 ], [ false, %if.end ], [ false, %if.end.i ], [ false, %if.end8 ], [ false, %if.end.i7 ]
  ret i1 %retval.0
}